; Function Attrs: nounwind uwtable
define hidden void @dissect_zbee_zdp_rsp_ext_addr(ptr noundef %0, ptr noundef %1, ptr noundef %2) local_unnamed_addr #0 {
  %4 = alloca i32, align 4
  %5 = alloca i32, align 4
  %6 = alloca i32, align 4
  store i32 0, ptr %4, align 4
  %7 = call zeroext i8 @zdp_parse_status(ptr noundef %2, ptr noundef %0, ptr noundef nonnull %4) #2
  %8 = load i32, ptr @hf_zbee_zdp_ext_addr, align 4
  %9 = call i64 @zbee_parse_eui64(ptr noundef %2, i32 noundef %8, ptr noundef %0, ptr noundef nonnull %4, i32 noundef 8, ptr noundef null) #2
  %10 = load i32, ptr @hf_zbee_zdp_nwk_addr, align 4
  %11 = load i32, ptr %4, align 4
  %12 = call ptr @proto_tree_add_item_ret_uint(ptr noundef %2, i32 noundef %10, ptr noundef %0, i32 noundef %11, i32 noundef 2, i32 noundef -2147483648, ptr noundef nonnull %5) #2
  %13 = load i32, ptr %4, align 4
  %14 = add i32 %13, 2
  store i32 %14, ptr %4, align 4
  %15 = call i32 @tvb_bytes_exist(ptr noundef %0, i32 noundef %14, i32 noundef 1) #2
  %.not = icmp eq i32 %15, 0
  br i1 %.not, label %.loopexit, label %16

16:                                               ; preds = %3
  %17 = load i32, ptr @hf_zbee_zdp_assoc_device_count, align 4
  %18 = load i32, ptr %4, align 4
  %19 = call ptr @proto_tree_add_item_ret_uint(ptr noundef %2, i32 noundef %17, ptr noundef %0, i32 noundef %18, i32 noundef 1, i32 noundef -2147483648, ptr noundef nonnull %6) #2
  %20 = load i32, ptr %4, align 4
  %21 = add i32 %20, 1
  store i32 %21, ptr %4, align 4
  %22 = icmp ne ptr %2, null
  %23 = load i32, ptr %6, align 4
  %24 = icmp ne i32 %23, 0
  %or.cond = select i1 %22, i1 %24, i1 false
  br i1 %or.cond, label %25, label %34

25:                                               ; preds = %16
  %26 = load i32, ptr @hf_zbee_zdp_index, align 4
  %27 = call ptr @proto_tree_add_item(ptr noundef nonnull %2, i32 noundef %26, ptr noundef %0, i32 noundef %21, i32 noundef 1, i32 noundef -2147483648) #2
  %28 = load i32, ptr %4, align 4
  %29 = add i32 %28, 1
  store i32 %29, ptr %4, align 4
  %30 = load i32, ptr %6, align 4
  %31 = shl i32 %30, 1
  %32 = load i32, ptr @ett_zbee_zdp_assoc_device, align 4
  %33 = call ptr @proto_tree_add_subtree(ptr noundef nonnull %2, ptr noundef %0, i32 noundef %29, i32 noundef %31, i32 noundef %32, ptr noundef null, ptr noundef nonnull @.str.18) #2
  %.pre = load i32, ptr %6, align 4
  br label %34

34:                                               ; preds = %25, %16
  %35 = phi i32 [ %.pre, %25 ], [ %23, %16 ]
  %.0 = phi ptr [ %33, %25 ], [ null, %16 ]
  %.not32 = icmp eq i32 %35, 0
  br i1 %.not32, label %.loopexit, label %.lr.ph.preheader

.lr.ph.preheader:                                 ; preds = %34
  %.pre33 = load i32, ptr %4, align 4
  br label %.lr.ph

.lr.ph:                                           ; preds = %.lr.ph.preheader, %.lr.ph
  %36 = phi i32 [ %40, %.lr.ph ], [ %.pre33, %.lr.ph.preheader ]
  %.02931 = phi i32 [ %41, %.lr.ph ], [ 0, %.lr.ph.preheader ]
  %37 = load i32, ptr @hf_zbee_zdp_assoc_device, align 4
  %38 = call ptr @proto_tree_add_item(ptr noundef %.0, i32 noundef %37, ptr noundef %0, i32 noundef %36, i32 noundef 2, i32 noundef -2147483648) #2
  %39 = load i32, ptr %4, align 4
  %40 = add i32 %39, 2
  store i32 %40, ptr %4, align 4
  %41 = add nuw i32 %.02931, 1
  %42 = load i32, ptr %6, align 4
  %43 = icmp ult i32 %41, %42
  br i1 %43, label %.lr.ph, label %.loopexit, !llvm.loop !12

.loopexit:                                        ; preds = %.lr.ph, %34, %3
  %44 = call ptr @zdp_status_name(i8 noundef zeroext %7) #2
  call void (ptr, ptr, ptr, ...) @zbee_append_info(ptr noundef %2, ptr noundef %1, ptr noundef nonnull @.str.13, ptr noundef %44) #2
  %45 = icmp eq i8 %7, 0
  br i1 %45, label %46, label %51

46:                                               ; preds = %.loopexit
  %47 = load i32, ptr %5, align 4
  %48 = getelementptr inbounds nuw i8, ptr %1, i64 408
  %49 = load ptr, ptr %48, align 8
  %50 = call ptr @eui64_to_display(ptr noundef %49, i64 noundef %9) #2
  call void (ptr, ptr, ptr, ...) @zbee_append_info(ptr noundef %2, ptr noundef %1, ptr noundef nonnull @.str.20, i32 noundef %47, ptr noundef %50) #2
  br label %51

51:                                               ; preds = %46, %.loopexit
  %52 = load i32, ptr %4, align 4
  call void @zdp_dump_excess(ptr noundef %0, i32 noundef %52, ptr noundef %1, ptr noundef %2) #2
  ret void
}